; Function Attrs: mustprogress nounwind uwtable
define noundef i64 @_ZNK8triggers8module_t11tdata1_readEj(ptr noundef nonnull readonly align 8 captures(none) dereferenceable(32) %0, i32 noundef %1) local_unnamed_addr #6 align 2 {
  %3 = getelementptr inbounds nuw i8, ptr %0, i64 8
  %4 = zext i32 %1 to i64
  %5 = load ptr, ptr %3, align 8, !tbaa !204
  %6 = getelementptr inbounds nuw ptr, ptr %5, i64 %4
  %7 = load ptr, ptr %6, align 8, !tbaa !206
  %8 = load ptr, ptr %0, align 8, !tbaa !211
  %9 = load ptr, ptr %7, align 8, !tbaa !147
  %10 = getelementptr inbounds nuw i8, ptr %9, i64 16
  %11 = load ptr, ptr %10, align 8
  %12 = tail call noundef i64 %11(ptr noundef nonnull align 8 dereferenceable(44) %7, ptr noundef %8) #22
  ret i64 %12
}